; Function Attrs: nounwind sspstrong uwtable
define internal void @virtio_pci_dc_realize(ptr noundef %0, ptr noundef %1) #0 {
  %3 = tail call ptr @object_get_class(ptr noundef %0) #15
  %4 = tail call ptr @object_class_dynamic_cast_assert(ptr noundef %3, ptr noundef nonnull @.str, ptr noundef nonnull @.str.15, i32 noundef 107, ptr noundef nonnull @__func__.VIRTIO_PCI_GET_CLASS) #15
  %5 = tail call ptr @object_dynamic_cast_assert(ptr noundef %0, ptr noundef nonnull @.str, ptr noundef nonnull @.str.15, i32 noundef 107, ptr noundef nonnull @__func__.VIRTIO_PCI) #15
  %6 = getelementptr inbounds nuw i8, ptr %5, i64 5348
  %7 = load i32, ptr %6, align 4
  %8 = and i32 %7, 16
  %.not = icmp eq i32 %8, 0
  br i1 %.not, label %9, label %16

9:                                                ; preds = %2
  %10 = getelementptr i8, ptr %5, i64 5352
  %.val = load i8, ptr %10, align 8, !range !7, !noundef !6
  %11 = trunc nuw i8 %.val to i1
  br i1 %11, label %16, label %12

12:                                               ; preds = %9
  %13 = getelementptr inbounds nuw i8, ptr %5, i64 1324
  %14 = load i32, ptr %13, align 4
  %15 = or i32 %14, 4
  store i32 %15, ptr %13, align 4
  br label %16

16:                                               ; preds = %12, %9, %2
  %17 = getelementptr inbounds nuw i8, ptr %4, i64 240
  %18 = load ptr, ptr %17, align 8
  tail call void %18(ptr noundef %0, ptr noundef %1) #15
  ret void
}